target datalayout = "e-m:e-p270:32:32-p271:32:32-p272:64:64-i64:64-i128:128-f80:128-n8:16:32:64-S128"
target triple = "x86_64-pc-linux-gnu"

%"class.cv::Point_" = type { double, double }
%"class.cv::Size_" = type { i32, i32 }

@tl = hidden global %"class.cv::Point_" zeroinitializer, align 8
@tr = hidden global %"class.cv::Point_" zeroinitializer, align 8
@bl = hidden global %"class.cv::Point_" zeroinitializer, align 8
@br = hidden global %"class.cv::Point_" zeroinitializer, align 8

; Function Attrs: inlinehint mustprogress nounwind uwtable
define linkonce_odr hidden void @_ZN2cv6Point_IdEC2Edd(ptr noundef nonnull align 8 dereferenceable(16) %0, double noundef %1, double noundef %2) unnamed_addr #4 comdat align 2 {
  %4 = alloca ptr, align 8
  %5 = alloca double, align 8
  %6 = alloca double, align 8
  store ptr %0, ptr %4, align 8, !tbaa !4
  store double %1, ptr %5, align 8, !tbaa !9
  store double %2, ptr %6, align 8, !tbaa !9
  %7 = load ptr, ptr %4, align 8
  %8 = getelementptr inbounds nuw %"class.cv::Point_", ptr %7, i32 0, i32 0
  %9 = load double, ptr %5, align 8, !tbaa !9
  store double %9, ptr %8, align 8, !tbaa !11
  %10 = getelementptr inbounds nuw %"class.cv::Point_", ptr %7, i32 0, i32 1
  %11 = load double, ptr %6, align 8, !tbaa !9
  store double %11, ptr %10, align 8, !tbaa !13
  ret void
}

; Function Attrs: mustprogress uwtable
define hidden { double, double } @_Z4lerpRKN2cv6Point_IdEES3_RKd(ptr noundef nonnull align 8 dereferenceable(16) %0, ptr noundef nonnull align 8 dereferenceable(16) %1, ptr noundef nonnull align 8 dereferenceable(8) %2) #6 {
  %4 = alloca %"class.cv::Point_", align 8
  %5 = alloca ptr, align 8
  %6 = alloca ptr, align 8
  %7 = alloca ptr, align 8
  store ptr %0, ptr %5, align 8, !tbaa !4
  store ptr %1, ptr %6, align 8, !tbaa !4
  store ptr %2, ptr %7, align 8, !tbaa !20
  %8 = load ptr, ptr %7, align 8, !tbaa !20
  %9 = load double, ptr %8, align 8, !tbaa !9
  %10 = fsub double 1.000000e+00, %9
  %11 = load ptr, ptr %5, align 8, !tbaa !4
  %12 = getelementptr inbounds nuw %"class.cv::Point_", ptr %11, i32 0, i32 0
  %13 = load double, ptr %12, align 8, !tbaa !11
  %14 = load ptr, ptr %7, align 8, !tbaa !20
  %15 = load double, ptr %14, align 8, !tbaa !9
  %16 = load ptr, ptr %6, align 8, !tbaa !4
  %17 = getelementptr inbounds nuw %"class.cv::Point_", ptr %16, i32 0, i32 0
  %18 = load double, ptr %17, align 8, !tbaa !11
  %19 = fmul double %15, %18
  %20 = call double @llvm.fmuladd.f64(double %10, double %13, double %19)
  %21 = load ptr, ptr %7, align 8, !tbaa !20
  %22 = load double, ptr %21, align 8, !tbaa !9
  %23 = fsub double 1.000000e+00, %22
  %24 = load ptr, ptr %5, align 8, !tbaa !4
  %25 = getelementptr inbounds nuw %"class.cv::Point_", ptr %24, i32 0, i32 1
  %26 = load double, ptr %25, align 8, !tbaa !13
  %27 = load ptr, ptr %7, align 8, !tbaa !20
  %28 = load double, ptr %27, align 8, !tbaa !9
  %29 = load ptr, ptr %6, align 8, !tbaa !4
  %30 = getelementptr inbounds nuw %"class.cv::Point_", ptr %29, i32 0, i32 1
  %31 = load double, ptr %30, align 8, !tbaa !13
  %32 = fmul double %28, %31
  %33 = call double @llvm.fmuladd.f64(double %23, double %26, double %32)
  call void @_ZN2cv6Point_IdEC2Edd(ptr noundef nonnull align 8 dereferenceable(16) %4, double noundef %20, double noundef %33)
  %34 = load { double, double }, ptr %4, align 8
  ret { double, double } %34
}

; Function Attrs: mustprogress uwtable
define hidden { double, double } @_Z11pixel2worldRKiS0_RKN2cv5Size_IiEE(ptr noundef nonnull align 4 dereferenceable(4) %0, ptr noundef nonnull align 4 dereferenceable(4) %1, ptr noundef nonnull align 4 dereferenceable(8) %2) #6 {
  %4 = alloca %"class.cv::Point_", align 8
  %5 = alloca ptr, align 8
  %6 = alloca ptr, align 8
  %7 = alloca ptr, align 8
  %8 = alloca double, align 8
  %9 = alloca double, align 8
  %10 = alloca %"class.cv::Point_", align 8
  %11 = alloca %"class.cv::Point_", align 8
  store ptr %0, ptr %5, align 8, !tbaa !41
  store ptr %1, ptr %6, align 8, !tbaa !41
  store ptr %2, ptr %7, align 8, !tbaa !36
  call void @llvm.lifetime.start.p0(i64 8, ptr %8) #3
  %12 = load ptr, ptr %5, align 8, !tbaa !41
  %13 = load i32, ptr %12, align 4, !tbaa !26
  %14 = sitofp i32 %13 to double
  %15 = load ptr, ptr %7, align 8, !tbaa !36
  %16 = getelementptr inbounds nuw %"class.cv::Size_", ptr %15, i32 0, i32 0
  %17 = load i32, ptr %16, align 4, !tbaa !38
  %18 = sitofp i32 %17 to double
  %19 = fdiv double %14, %18
  store double %19, ptr %8, align 8, !tbaa !9
  call void @llvm.lifetime.start.p0(i64 8, ptr %9) #3
  %20 = load ptr, ptr %6, align 8, !tbaa !41
  %21 = load i32, ptr %20, align 4, !tbaa !26
  %22 = sitofp i32 %21 to double
  %23 = load ptr, ptr %7, align 8, !tbaa !36
  %24 = getelementptr inbounds nuw %"class.cv::Size_", ptr %23, i32 0, i32 1
  %25 = load i32, ptr %24, align 4, !tbaa !40
  %26 = sitofp i32 %25 to double
  %27 = fdiv double %22, %26
  store double %27, ptr %9, align 8, !tbaa !9
  call void @llvm.lifetime.start.p0(i64 16, ptr %10) #3
  %28 = call { double, double } @_Z4lerpRKN2cv6Point_IdEES3_RKd(ptr noundef nonnull align 8 dereferenceable(16) @tr, ptr noundef nonnull align 8 dereferenceable(16) @br, ptr noundef nonnull align 8 dereferenceable(8) %9)
  %29 = getelementptr inbounds nuw { double, double }, ptr %10, i32 0, i32 0
  %30 = extractvalue { double, double } %28, 0
  store double %30, ptr %29, align 8
  %31 = getelementptr inbounds nuw { double, double }, ptr %10, i32 0, i32 1
  %32 = extractvalue { double, double } %28, 1
  store double %32, ptr %31, align 8
  call void @llvm.lifetime.start.p0(i64 16, ptr %11) #3
  %33 = call { double, double } @_Z4lerpRKN2cv6Point_IdEES3_RKd(ptr noundef nonnull align 8 dereferenceable(16) @tl, ptr noundef nonnull align 8 dereferenceable(16) @bl, ptr noundef nonnull align 8 dereferenceable(8) %9)
  %34 = getelementptr inbounds nuw { double, double }, ptr %11, i32 0, i32 0
  %35 = extractvalue { double, double } %33, 0
  store double %35, ptr %34, align 8
  %36 = getelementptr inbounds nuw { double, double }, ptr %11, i32 0, i32 1
  %37 = extractvalue { double, double } %33, 1
  store double %37, ptr %36, align 8
  %38 = call { double, double } @_Z4lerpRKN2cv6Point_IdEES3_RKd(ptr noundef nonnull align 8 dereferenceable(16) %11, ptr noundef nonnull align 8 dereferenceable(16) %10, ptr noundef nonnull align 8 dereferenceable(8) %8)
  %39 = getelementptr inbounds nuw { double, double }, ptr %4, i32 0, i32 0
  %40 = extractvalue { double, double } %38, 0
  store double %40, ptr %39, align 8
  %41 = getelementptr inbounds nuw { double, double }, ptr %4, i32 0, i32 1
  %42 = extractvalue { double, double } %38, 1
  store double %42, ptr %41, align 8
  call void @llvm.lifetime.end.p0(i64 16, ptr %11) #3
  call void @llvm.lifetime.end.p0(i64 16, ptr %10) #3
  call void @llvm.lifetime.end.p0(i64 8, ptr %9) #3
  call void @llvm.lifetime.end.p0(i64 8, ptr %8) #3
  %43 = load { double, double }, ptr %4, align 8
  ret { double, double } %43
}