; Function Attrs: mustprogress nofree norecurse nosync nounwind willreturn memory(read, inaccessiblemem: none) uwtable
define hidden { double, double } @_Z11pixel2worldRKiS0_RKN2cv5Size_IiEE(ptr noundef nonnull readonly align 4 captures(none) dereferenceable(4) %0, ptr noundef nonnull readonly align 4 captures(none) dereferenceable(4) %1, ptr noundef nonnull readonly align 4 captures(none) dereferenceable(8) %2) local_unnamed_addr #8 {
  %4 = load i32, ptr %0, align 4, !tbaa !31
  %5 = sitofp i32 %4 to double
  %6 = load i32, ptr %2, align 4, !tbaa !27
  %7 = sitofp i32 %6 to double
  %8 = fdiv double %5, %7
  %9 = load i32, ptr %1, align 4, !tbaa !31
  %10 = sitofp i32 %9 to double
  %11 = getelementptr inbounds nuw i8, ptr %2, i64 4
  %12 = load i32, ptr %11, align 4, !tbaa !30
  %13 = sitofp i32 %12 to double
  %14 = fdiv double %10, %13
  %15 = fsub double 1.000000e+00, %14
  %16 = load double, ptr @tr, align 8, !tbaa !12
  %17 = load double, ptr @br, align 8, !tbaa !12
  %18 = fmul double %14, %17
  %19 = tail call double @llvm.fmuladd.f64(double %15, double %16, double %18)
  %20 = load double, ptr getelementptr inbounds nuw (i8, ptr @tr, i64 8), align 8, !tbaa !14
  %21 = load double, ptr getelementptr inbounds nuw (i8, ptr @br, i64 8), align 8, !tbaa !14
  %22 = fmul double %14, %21
  %23 = tail call double @llvm.fmuladd.f64(double %15, double %20, double %22)
  %24 = load double, ptr @tl, align 8, !tbaa !12
  %25 = load double, ptr @bl, align 8, !tbaa !12
  %26 = fmul double %14, %25
  %27 = tail call double @llvm.fmuladd.f64(double %15, double %24, double %26)
  %28 = load double, ptr getelementptr inbounds nuw (i8, ptr @tl, i64 8), align 8, !tbaa !14
  %29 = load double, ptr getelementptr inbounds nuw (i8, ptr @bl, i64 8), align 8, !tbaa !14
  %30 = fmul double %14, %29
  %31 = tail call double @llvm.fmuladd.f64(double %15, double %28, double %30)
  %32 = fsub double 1.000000e+00, %8
  %33 = fmul double %8, %19
  %34 = tail call double @llvm.fmuladd.f64(double %32, double %27, double %33)
  %35 = fmul double %8, %23
  %36 = tail call double @llvm.fmuladd.f64(double %32, double %31, double %35)
  %.fca.0.insert.i6 = insertvalue { double, double } poison, double %34, 0
  %.fca.1.insert.i7 = insertvalue { double, double } %.fca.0.insert.i6, double %36, 1
  ret { double, double } %.fca.1.insert.i7
}